; Function Attrs: mustprogress nofree nounwind willreturn memory(read, inaccessiblemem: none) uwtable
define dso_local noundef zeroext i1 @_ZN9V3Options8suffixedERKNSt7__cxx1112basic_stringIcSt11char_traitsIcESaIcEEEPKc(ptr noundef nonnull readonly align 8 captures(none) dereferenceable(32) %0, ptr noundef readonly captures(none) %1) local_unnamed_addr #10 align 2 {
  %3 = tail call i64 @strlen(ptr noundef nonnull dereferenceable(1) %1) #39
  %4 = getelementptr inbounds nuw i8, ptr %0, i64 8
  %5 = load i64, ptr %4, align 8, !tbaa !24
  %6 = icmp ugt i64 %3, %5
  br i1 %6, label %14, label %7

7:                                                ; preds = %2
  %8 = load ptr, ptr %0, align 8, !tbaa !20
  %9 = getelementptr inbounds nuw i8, ptr %8, i64 %5
  %10 = sub i64 0, %3
  %11 = getelementptr inbounds i8, ptr %9, i64 %10
  %12 = tail call i32 @strcmp(ptr noundef nonnull dereferenceable(1) %11, ptr noundef nonnull dereferenceable(1) %1) #39
  %13 = icmp eq i32 %12, 0
  br label %14

14:                                               ; preds = %2, %7
  %.0 = phi i1 [ %13, %7 ], [ false, %2 ]
  ret i1 %.0
}